; Function Attrs: mustprogress uwtable
define void @_ZNK8proxygen21RequestHandlerAdaptor23getCurrentTransportInfoEPN6wangle13TransportInfoE(ptr nocapture noundef nonnull readonly align 8 dereferenceable(36) %this, ptr noundef %tinfo) unnamed_addr #3 align 2 {
entry:
  %txn_ = getelementptr inbounds i8, ptr %this, i64 24
  %0 = load ptr, ptr %txn_, align 8
  %transport_.i = getelementptr inbounds i8, ptr %0, i64 272
  %1 = load ptr, ptr %transport_.i, align 8
  %vtable.i = load ptr, ptr %1, align 8
  %vfn.i = getelementptr inbounds i8, ptr %vtable.i, i64 200
  %2 = load ptr, ptr %vfn.i, align 8
  %call.i = tail call noundef zeroext i1 %2(ptr noundef nonnull align 8 dereferenceable(8) %1, ptr noundef %tinfo)
  ret void
}